target datalayout = "e-m:e-p270:32:32-p271:32:32-p272:64:64-i64:64-i128:128-f80:128-n8:16:32:64-S128"
target triple = "x86_64-pc-linux-gnu"

%struct.VP9RawFrameHeader = type { i8, i8, i8, i8, i8, i8, i8, i8, i8, i8, i8, i8, i8, i8, i8, i8, [3 x i8], [4 x i8], i8, i8, i8, i8, [3 x i8], i16, i16, i8, i16, i16, i8, i8, i8, i8, i8, i8, [4 x i8], [4 x i8], [2 x i8], [2 x i8], i8, i8, i8, i8, i8, i8, [7 x i8], i8, [3 x i8], i8, i8, [8 x [4 x i8]], [8 x [4 x i8]], [8 x [4 x i8]], i8, i8, i16 }

@.str.52 = private unnamed_addr constant [18 x i8] c"loop_filter_level\00", align 1
@.str.53 = private unnamed_addr constant [22 x i8] c"loop_filter_sharpness\00", align 1
@.str.54 = private unnamed_addr constant [26 x i8] c"loop_filter_delta_enabled\00", align 1
@.str.55 = private unnamed_addr constant [25 x i8] c"loop_filter_delta_update\00", align 1
@.str.56 = private unnamed_addr constant [20 x i8] c"update_ref_delta[i]\00", align 1
@.str.57 = private unnamed_addr constant [26 x i8] c"loop_filter_ref_deltas[i]\00", align 1
@.str.58 = private unnamed_addr constant [21 x i8] c"update_mode_delta[i]\00", align 1
@.str.59 = private unnamed_addr constant [27 x i8] c"loop_filter_mode_deltas[i]\00", align 1

; Function Attrs: nounwind uwtable
define internal i32 @cbs_vp9_write_loop_filter_params(ptr noundef %0, ptr noundef %1, ptr noundef %2) #0 {
  %4 = alloca i32, align 4
  %5 = alloca ptr, align 8
  %6 = alloca ptr, align 8
  %7 = alloca ptr, align 8
  %8 = alloca i32, align 4
  %9 = alloca i32, align 4
  %10 = alloca i32, align 4
  %11 = alloca [2 x i32], align 4
  %12 = alloca [2 x i32], align 4
  %13 = alloca [2 x i32], align 4
  %14 = alloca [2 x i32], align 4
  store ptr %0, ptr %5, align 8, !tbaa !4
  store ptr %1, ptr %6, align 8, !tbaa !45
  store ptr %2, ptr %7, align 8, !tbaa !79
  call void @llvm.lifetime.start.p0(i64 4, ptr %8) #8
  call void @llvm.lifetime.start.p0(i64 4, ptr %9) #8
  br label %15

15:                                               ; preds = %3
  br label %16

16:                                               ; preds = %15
  %17 = load ptr, ptr %5, align 8, !tbaa !4
  %18 = load ptr, ptr %6, align 8, !tbaa !45
  %19 = load ptr, ptr %7, align 8, !tbaa !79
  %20 = getelementptr inbounds nuw %struct.VP9RawFrameHeader, ptr %19, i32 0, i32 30
  %21 = load i8, ptr %20, align 2, !tbaa !90
  %22 = zext i8 %21 to i32
  %23 = call i32 @ff_cbs_write_simple_unsigned(ptr noundef %17, ptr noundef %18, i32 noundef 6, ptr noundef @.str.52, i32 noundef %22)
  store i32 %23, ptr %8, align 4, !tbaa !11
  %24 = load i32, ptr %8, align 4, !tbaa !11
  %25 = icmp slt i32 %24, 0
  br i1 %25, label %26, label %28

26:                                               ; preds = %16
  %27 = load i32, ptr %8, align 4, !tbaa !11
  store i32 %27, ptr %4, align 4
  store i32 1, ptr %10, align 4
  br label %229

28:                                               ; preds = %16
  br label %29

29:                                               ; preds = %28
  br label %30

30:                                               ; preds = %29
  br label %31

31:                                               ; preds = %30
  br label %32

32:                                               ; preds = %31
  br label %33

33:                                               ; preds = %32
  br label %34

34:                                               ; preds = %33
  %35 = load ptr, ptr %5, align 8, !tbaa !4
  %36 = load ptr, ptr %6, align 8, !tbaa !45
  %37 = load ptr, ptr %7, align 8, !tbaa !79
  %38 = getelementptr inbounds nuw %struct.VP9RawFrameHeader, ptr %37, i32 0, i32 31
  %39 = load i8, ptr %38, align 1, !tbaa !136
  %40 = zext i8 %39 to i32
  %41 = call i32 @ff_cbs_write_simple_unsigned(ptr noundef %35, ptr noundef %36, i32 noundef 3, ptr noundef @.str.53, i32 noundef %40)
  store i32 %41, ptr %8, align 4, !tbaa !11
  %42 = load i32, ptr %8, align 4, !tbaa !11
  %43 = icmp slt i32 %42, 0
  br i1 %43, label %44, label %46

44:                                               ; preds = %34
  %45 = load i32, ptr %8, align 4, !tbaa !11
  store i32 %45, ptr %4, align 4
  store i32 1, ptr %10, align 4
  br label %229

46:                                               ; preds = %34
  br label %47

47:                                               ; preds = %46
  br label %48

48:                                               ; preds = %47
  br label %49

49:                                               ; preds = %48
  br label %50

50:                                               ; preds = %49
  br label %51

51:                                               ; preds = %50
  br label %52

52:                                               ; preds = %51
  %53 = load ptr, ptr %5, align 8, !tbaa !4
  %54 = load ptr, ptr %6, align 8, !tbaa !45
  %55 = load ptr, ptr %7, align 8, !tbaa !79
  %56 = getelementptr inbounds nuw %struct.VP9RawFrameHeader, ptr %55, i32 0, i32 32
  %57 = load i8, ptr %56, align 2, !tbaa !137
  %58 = zext i8 %57 to i32
  %59 = call i32 @ff_cbs_write_simple_unsigned(ptr noundef %53, ptr noundef %54, i32 noundef 1, ptr noundef @.str.54, i32 noundef %58)
  store i32 %59, ptr %8, align 4, !tbaa !11
  %60 = load i32, ptr %8, align 4, !tbaa !11
  %61 = icmp slt i32 %60, 0
  br i1 %61, label %62, label %64

62:                                               ; preds = %52
  %63 = load i32, ptr %8, align 4, !tbaa !11
  store i32 %63, ptr %4, align 4
  store i32 1, ptr %10, align 4
  br label %229

64:                                               ; preds = %52
  br label %65

65:                                               ; preds = %64
  br label %66

66:                                               ; preds = %65
  br label %67

67:                                               ; preds = %66
  br label %68

68:                                               ; preds = %67
  %69 = load ptr, ptr %7, align 8, !tbaa !79
  %70 = getelementptr inbounds nuw %struct.VP9RawFrameHeader, ptr %69, i32 0, i32 32
  %71 = load i8, ptr %70, align 2, !tbaa !137
  %72 = icmp ne i8 %71, 0
  br i1 %72, label %73, label %228

73:                                               ; preds = %68
  br label %74

74:                                               ; preds = %73
  br label %75

75:                                               ; preds = %74
  %76 = load ptr, ptr %5, align 8, !tbaa !4
  %77 = load ptr, ptr %6, align 8, !tbaa !45
  %78 = load ptr, ptr %7, align 8, !tbaa !79
  %79 = getelementptr inbounds nuw %struct.VP9RawFrameHeader, ptr %78, i32 0, i32 33
  %80 = load i8, ptr %79, align 1, !tbaa !138
  %81 = zext i8 %80 to i32
  %82 = call i32 @ff_cbs_write_simple_unsigned(ptr noundef %76, ptr noundef %77, i32 noundef 1, ptr noundef @.str.55, i32 noundef %81)
  store i32 %82, ptr %8, align 4, !tbaa !11
  %83 = load i32, ptr %8, align 4, !tbaa !11
  %84 = icmp slt i32 %83, 0
  br i1 %84, label %85, label %87

85:                                               ; preds = %75
  %86 = load i32, ptr %8, align 4, !tbaa !11
  store i32 %86, ptr %4, align 4
  store i32 1, ptr %10, align 4
  br label %229

87:                                               ; preds = %75
  br label %88

88:                                               ; preds = %87
  br label %89

89:                                               ; preds = %88
  br label %90

90:                                               ; preds = %89
  br label %91

91:                                               ; preds = %90
  %92 = load ptr, ptr %7, align 8, !tbaa !79
  %93 = getelementptr inbounds nuw %struct.VP9RawFrameHeader, ptr %92, i32 0, i32 33
  %94 = load i8, ptr %93, align 1, !tbaa !138
  %95 = icmp ne i8 %94, 0
  br i1 %95, label %96, label %227

96:                                               ; preds = %91
  store i32 0, ptr %9, align 4, !tbaa !11
  br label %97

97:                                               ; preds = %158, %96
  %98 = load i32, ptr %9, align 4, !tbaa !11
  %99 = icmp slt i32 %98, 4
  br i1 %99, label %100, label %161

100:                                              ; preds = %97
  br label %101

101:                                              ; preds = %100
  br label %102

102:                                              ; preds = %101
  %103 = load ptr, ptr %5, align 8, !tbaa !4
  %104 = load ptr, ptr %6, align 8, !tbaa !45
  store i32 1, ptr %11, align 4, !tbaa !11
  %105 = getelementptr inbounds i32, ptr %11, i64 1
  %106 = load i32, ptr %9, align 4, !tbaa !11
  store i32 %106, ptr %105, align 4, !tbaa !11
  %107 = getelementptr inbounds [2 x i32], ptr %11, i64 0, i64 0
  %108 = load ptr, ptr %7, align 8, !tbaa !79
  %109 = getelementptr inbounds nuw %struct.VP9RawFrameHeader, ptr %108, i32 0, i32 34
  %110 = load i32, ptr %9, align 4, !tbaa !11
  %111 = sext i32 %110 to i64
  %112 = getelementptr inbounds [4 x i8], ptr %109, i64 0, i64 %111
  %113 = load i8, ptr %112, align 1, !tbaa !20
  %114 = zext i8 %113 to i32
  %115 = call i32 @ff_cbs_write_unsigned(ptr noundef %103, ptr noundef %104, i32 noundef 1, ptr noundef @.str.56, ptr noundef %107, i32 noundef %114, i32 noundef 0, i32 noundef 1)
  store i32 %115, ptr %8, align 4, !tbaa !11
  %116 = load i32, ptr %8, align 4, !tbaa !11
  %117 = icmp slt i32 %116, 0
  br i1 %117, label %118, label %120

118:                                              ; preds = %102
  %119 = load i32, ptr %8, align 4, !tbaa !11
  store i32 %119, ptr %4, align 4
  store i32 1, ptr %10, align 4
  br label %229

120:                                              ; preds = %102
  br label %121

121:                                              ; preds = %120
  br label %122

122:                                              ; preds = %121
  br label %123

123:                                              ; preds = %122
  br label %124

124:                                              ; preds = %123
  %125 = load ptr, ptr %7, align 8, !tbaa !79
  %126 = getelementptr inbounds nuw %struct.VP9RawFrameHeader, ptr %125, i32 0, i32 34
  %127 = load i32, ptr %9, align 4, !tbaa !11
  %128 = sext i32 %127 to i64
  %129 = getelementptr inbounds [4 x i8], ptr %126, i64 0, i64 %128
  %130 = load i8, ptr %129, align 1, !tbaa !20
  %131 = icmp ne i8 %130, 0
  br i1 %131, label %132, label %157

132:                                              ; preds = %124
  br label %133

133:                                              ; preds = %132
  br label %134

134:                                              ; preds = %133
  %135 = load ptr, ptr %5, align 8, !tbaa !4
  %136 = load ptr, ptr %6, align 8, !tbaa !45
  store i32 1, ptr %12, align 4, !tbaa !11
  %137 = getelementptr inbounds i32, ptr %12, i64 1
  %138 = load i32, ptr %9, align 4, !tbaa !11
  store i32 %138, ptr %137, align 4, !tbaa !11
  %139 = getelementptr inbounds [2 x i32], ptr %12, i64 0, i64 0
  %140 = load ptr, ptr %7, align 8, !tbaa !79
  %141 = getelementptr inbounds nuw %struct.VP9RawFrameHeader, ptr %140, i32 0, i32 35
  %142 = load i32, ptr %9, align 4, !tbaa !11
  %143 = sext i32 %142 to i64
  %144 = getelementptr inbounds [4 x i8], ptr %141, i64 0, i64 %143
  %145 = load i8, ptr %144, align 1, !tbaa !20
  %146 = sext i8 %145 to i32
  %147 = call i32 @cbs_vp9_write_s(ptr noundef %135, ptr noundef %136, i32 noundef 6, ptr noundef @.str.57, ptr noundef %139, i32 noundef %146)
  store i32 %147, ptr %8, align 4, !tbaa !11
  %148 = load i32, ptr %8, align 4, !tbaa !11
  %149 = icmp slt i32 %148, 0
  br i1 %149, label %150, label %152

150:                                              ; preds = %134
  %151 = load i32, ptr %8, align 4, !tbaa !11
  store i32 %151, ptr %4, align 4
  store i32 1, ptr %10, align 4
  br label %229

152:                                              ; preds = %134
  br label %153

153:                                              ; preds = %152
  br label %154

154:                                              ; preds = %153
  br label %155

155:                                              ; preds = %154
  br label %156

156:                                              ; preds = %155
  br label %157

157:                                              ; preds = %156, %124
  br label %158

158:                                              ; preds = %157
  %159 = load i32, ptr %9, align 4, !tbaa !11
  %160 = add nsw i32 %159, 1
  store i32 %160, ptr %9, align 4, !tbaa !11
  br label %97, !llvm.loop !168

161:                                              ; preds = %97
  store i32 0, ptr %9, align 4, !tbaa !11
  br label %162

162:                                              ; preds = %223, %161
  %163 = load i32, ptr %9, align 4, !tbaa !11
  %164 = icmp slt i32 %163, 2
  br i1 %164, label %165, label %226

165:                                              ; preds = %162
  br label %166

166:                                              ; preds = %165
  br label %167

167:                                              ; preds = %166
  %168 = load ptr, ptr %5, align 8, !tbaa !4
  %169 = load ptr, ptr %6, align 8, !tbaa !45
  store i32 1, ptr %13, align 4, !tbaa !11
  %170 = getelementptr inbounds i32, ptr %13, i64 1
  %171 = load i32, ptr %9, align 4, !tbaa !11
  store i32 %171, ptr %170, align 4, !tbaa !11
  %172 = getelementptr inbounds [2 x i32], ptr %13, i64 0, i64 0
  %173 = load ptr, ptr %7, align 8, !tbaa !79
  %174 = getelementptr inbounds nuw %struct.VP9RawFrameHeader, ptr %173, i32 0, i32 36
  %175 = load i32, ptr %9, align 4, !tbaa !11
  %176 = sext i32 %175 to i64
  %177 = getelementptr inbounds [2 x i8], ptr %174, i64 0, i64 %176
  %178 = load i8, ptr %177, align 1, !tbaa !20
  %179 = zext i8 %178 to i32
  %180 = call i32 @ff_cbs_write_unsigned(ptr noundef %168, ptr noundef %169, i32 noundef 1, ptr noundef @.str.58, ptr noundef %172, i32 noundef %179, i32 noundef 0, i32 noundef 1)
  store i32 %180, ptr %8, align 4, !tbaa !11
  %181 = load i32, ptr %8, align 4, !tbaa !11
  %182 = icmp slt i32 %181, 0
  br i1 %182, label %183, label %185

183:                                              ; preds = %167
  %184 = load i32, ptr %8, align 4, !tbaa !11
  store i32 %184, ptr %4, align 4
  store i32 1, ptr %10, align 4
  br label %229

185:                                              ; preds = %167
  br label %186

186:                                              ; preds = %185
  br label %187

187:                                              ; preds = %186
  br label %188

188:                                              ; preds = %187
  br label %189

189:                                              ; preds = %188
  %190 = load ptr, ptr %7, align 8, !tbaa !79
  %191 = getelementptr inbounds nuw %struct.VP9RawFrameHeader, ptr %190, i32 0, i32 36
  %192 = load i32, ptr %9, align 4, !tbaa !11
  %193 = sext i32 %192 to i64
  %194 = getelementptr inbounds [2 x i8], ptr %191, i64 0, i64 %193
  %195 = load i8, ptr %194, align 1, !tbaa !20
  %196 = icmp ne i8 %195, 0
  br i1 %196, label %197, label %222

197:                                              ; preds = %189
  br label %198

198:                                              ; preds = %197
  br label %199

199:                                              ; preds = %198
  %200 = load ptr, ptr %5, align 8, !tbaa !4
  %201 = load ptr, ptr %6, align 8, !tbaa !45
  store i32 1, ptr %14, align 4, !tbaa !11
  %202 = getelementptr inbounds i32, ptr %14, i64 1
  %203 = load i32, ptr %9, align 4, !tbaa !11
  store i32 %203, ptr %202, align 4, !tbaa !11
  %204 = getelementptr inbounds [2 x i32], ptr %14, i64 0, i64 0
  %205 = load ptr, ptr %7, align 8, !tbaa !79
  %206 = getelementptr inbounds nuw %struct.VP9RawFrameHeader, ptr %205, i32 0, i32 37
  %207 = load i32, ptr %9, align 4, !tbaa !11
  %208 = sext i32 %207 to i64
  %209 = getelementptr inbounds [2 x i8], ptr %206, i64 0, i64 %208
  %210 = load i8, ptr %209, align 1, !tbaa !20
  %211 = sext i8 %210 to i32
  %212 = call i32 @cbs_vp9_write_s(ptr noundef %200, ptr noundef %201, i32 noundef 6, ptr noundef @.str.59, ptr noundef %204, i32 noundef %211)
  store i32 %212, ptr %8, align 4, !tbaa !11
  %213 = load i32, ptr %8, align 4, !tbaa !11
  %214 = icmp slt i32 %213, 0
  br i1 %214, label %215, label %217

215:                                              ; preds = %199
  %216 = load i32, ptr %8, align 4, !tbaa !11
  store i32 %216, ptr %4, align 4
  store i32 1, ptr %10, align 4
  br label %229

217:                                              ; preds = %199
  br label %218

218:                                              ; preds = %217
  br label %219

219:                                              ; preds = %218
  br label %220

220:                                              ; preds = %219
  br label %221

221:                                              ; preds = %220
  br label %222

222:                                              ; preds = %221, %189
  br label %223

223:                                              ; preds = %222
  %224 = load i32, ptr %9, align 4, !tbaa !11
  %225 = add nsw i32 %224, 1
  store i32 %225, ptr %9, align 4, !tbaa !11
  br label %162, !llvm.loop !169

226:                                              ; preds = %162
  br label %227

227:                                              ; preds = %226, %91
  br label %228

228:                                              ; preds = %227, %68
  store i32 0, ptr %4, align 4
  store i32 1, ptr %10, align 4
  br label %229

229:                                              ; preds = %228, %215, %183, %150, %118, %85, %62, %44, %26
  call void @llvm.lifetime.end.p0(i64 4, ptr %9) #8
  call void @llvm.lifetime.end.p0(i64 4, ptr %8) #8
  %230 = load i32, ptr %4, align 4
  ret i32 %230
}