; Function Attrs: nounwind uwtable
define internal fastcc range(i32 -2147483648, 1) i32 @cbs_vp9_write_loop_filter_params(ptr noundef %0, ptr noundef %1, ptr noundef readonly captures(none) %2) unnamed_addr #0 {
  %4 = alloca [2 x i32], align 4
  %5 = alloca [2 x i32], align 4
  %6 = alloca [2 x i32], align 4
  %7 = alloca [2 x i32], align 4
  %8 = getelementptr inbounds nuw i8, ptr %2, i64 42
  %9 = load i8, ptr %8, align 2, !tbaa !53
  %10 = zext i8 %9 to i32
  %11 = tail call i32 @ff_cbs_write_simple_unsigned(ptr noundef %0, ptr noundef %1, i32 noundef 6, ptr noundef nonnull @.str.52, i32 noundef %10) #8
  %12 = icmp slt i32 %11, 0
  br i1 %12, label %.loopexit, label %13

13:                                               ; preds = %3
  %14 = getelementptr inbounds nuw i8, ptr %2, i64 43
  %15 = load i8, ptr %14, align 1, !tbaa !123
  %16 = zext i8 %15 to i32
  %17 = tail call i32 @ff_cbs_write_simple_unsigned(ptr noundef %0, ptr noundef %1, i32 noundef 3, ptr noundef nonnull @.str.53, i32 noundef %16) #8
  %18 = icmp slt i32 %17, 0
  br i1 %18, label %.loopexit, label %19

19:                                               ; preds = %13
  %20 = getelementptr inbounds nuw i8, ptr %2, i64 44
  %21 = load i8, ptr %20, align 2, !tbaa !124
  %22 = zext i8 %21 to i32
  %23 = tail call i32 @ff_cbs_write_simple_unsigned(ptr noundef %0, ptr noundef %1, i32 noundef 1, ptr noundef nonnull @.str.54, i32 noundef %22) #8
  %24 = icmp slt i32 %23, 0
  br i1 %24, label %.loopexit, label %25

25:                                               ; preds = %19
  %26 = load i8, ptr %20, align 2, !tbaa !124
  %.not = icmp eq i8 %26, 0
  br i1 %.not, label %.loopexit, label %27

27:                                               ; preds = %25
  %28 = getelementptr inbounds nuw i8, ptr %2, i64 45
  %29 = load i8, ptr %28, align 1, !tbaa !125
  %30 = zext i8 %29 to i32
  %31 = tail call i32 @ff_cbs_write_simple_unsigned(ptr noundef %0, ptr noundef %1, i32 noundef 1, ptr noundef nonnull @.str.55, i32 noundef %30) #8
  %32 = icmp slt i32 %31, 0
  br i1 %32, label %.loopexit, label %33

33:                                               ; preds = %27
  %34 = load i8, ptr %28, align 1, !tbaa !125
  %.not67 = icmp eq i8 %34, 0
  br i1 %.not67, label %.loopexit, label %.preheader70

.preheader70:                                     ; preds = %33
  %35 = getelementptr inbounds nuw i8, ptr %4, i64 4
  %36 = getelementptr inbounds nuw i8, ptr %2, i64 46
  %37 = getelementptr inbounds nuw i8, ptr %5, i64 4
  %38 = getelementptr inbounds nuw i8, ptr %2, i64 50
  br label %43

.preheader:                                       ; preds = %58
  %39 = getelementptr inbounds nuw i8, ptr %6, i64 4
  %40 = getelementptr inbounds nuw i8, ptr %2, i64 54
  %41 = getelementptr inbounds nuw i8, ptr %7, i64 4
  %42 = getelementptr inbounds nuw i8, ptr %2, i64 56
  br label %59

43:                                               ; preds = %.preheader70, %58
  %indvars.iv = phi i64 [ 0, %.preheader70 ], [ %indvars.iv.next, %58 ]
  store i32 1, ptr %4, align 4, !tbaa !22
  %44 = trunc nuw nsw i64 %indvars.iv to i32
  store i32 %44, ptr %35, align 4, !tbaa !22
  %45 = getelementptr inbounds nuw [4 x i8], ptr %36, i64 0, i64 %indvars.iv
  %46 = load i8, ptr %45, align 1, !tbaa !15
  %47 = zext i8 %46 to i32
  %48 = call i32 @ff_cbs_write_unsigned(ptr noundef %0, ptr noundef %1, i32 noundef 1, ptr noundef nonnull @.str.56, ptr noundef nonnull %4, i32 noundef %47, i32 noundef 0, i32 noundef 1) #8
  %49 = icmp slt i32 %48, 0
  br i1 %49, label %.loopexit, label %50

50:                                               ; preds = %43
  %51 = load i8, ptr %45, align 1, !tbaa !15
  %.not69 = icmp eq i8 %51, 0
  br i1 %.not69, label %58, label %52

52:                                               ; preds = %50
  store i32 1, ptr %5, align 4, !tbaa !22
  store i32 %44, ptr %37, align 4, !tbaa !22
  %53 = getelementptr inbounds nuw [4 x i8], ptr %38, i64 0, i64 %indvars.iv
  %54 = load i8, ptr %53, align 1, !tbaa !15
  %55 = sext i8 %54 to i32
  %56 = call fastcc i32 @cbs_vp9_write_s(ptr noundef %0, ptr noundef %1, i32 noundef 6, ptr noundef nonnull @.str.57, ptr noundef nonnull %5, i32 noundef %55)
  %57 = icmp slt i32 %56, 0
  br i1 %57, label %.loopexit, label %58

58:                                               ; preds = %50, %52
  %indvars.iv.next = add nuw nsw i64 %indvars.iv, 1
  %exitcond.not = icmp eq i64 %indvars.iv.next, 4
  br i1 %exitcond.not, label %.preheader, label %43, !llvm.loop !146

59:                                               ; preds = %.backedge, %.preheader
  %60 = phi i1 [ true, %.preheader ], [ false, %.backedge ]
  %indvars.iv78 = phi i64 [ 0, %.preheader ], [ 1, %.backedge ]
  store i32 1, ptr %6, align 4, !tbaa !22
  %61 = trunc nuw nsw i64 %indvars.iv78 to i32
  store i32 %61, ptr %39, align 4, !tbaa !22
  %62 = getelementptr inbounds nuw [2 x i8], ptr %40, i64 0, i64 %indvars.iv78
  %63 = load i8, ptr %62, align 1, !tbaa !15
  %64 = zext i8 %63 to i32
  %65 = call i32 @ff_cbs_write_unsigned(ptr noundef %0, ptr noundef %1, i32 noundef 1, ptr noundef nonnull @.str.58, ptr noundef nonnull %6, i32 noundef %64, i32 noundef 0, i32 noundef 1) #8
  %66 = icmp slt i32 %65, 0
  br i1 %66, label %.loopexit, label %67

67:                                               ; preds = %59
  %68 = load i8, ptr %62, align 1, !tbaa !15
  %.not68 = icmp eq i8 %68, 0
  br i1 %.not68, label %75, label %69

69:                                               ; preds = %67
  store i32 1, ptr %7, align 4, !tbaa !22
  store i32 %61, ptr %41, align 4, !tbaa !22
  %70 = getelementptr inbounds nuw [2 x i8], ptr %42, i64 0, i64 %indvars.iv78
  %71 = load i8, ptr %70, align 1, !tbaa !15
  %72 = sext i8 %71 to i32
  %73 = call fastcc i32 @cbs_vp9_write_s(ptr noundef %0, ptr noundef %1, i32 noundef 6, ptr noundef nonnull @.str.59, ptr noundef nonnull %7, i32 noundef %72)
  %74 = icmp sgt i32 %73, -1
  %brmerge.not = and i1 %74, %60
  br i1 %brmerge.not, label %.backedge, label %.loopexit.loopexit.split.loop.exit

75:                                               ; preds = %67
  br i1 %60, label %.backedge, label %.loopexit

.backedge:                                        ; preds = %75, %69
  br label %59, !llvm.loop !147

.loopexit.loopexit.split.loop.exit:               ; preds = %69
  %.mux.le = select i1 %74, i32 0, i32 %73
  br label %.loopexit

.loopexit:                                        ; preds = %52, %43, %.loopexit.loopexit.split.loop.exit, %59, %75, %25, %33, %27, %19, %13, %3
  %.058 = phi i32 [ %11, %3 ], [ %17, %13 ], [ %23, %19 ], [ %31, %27 ], [ 0, %33 ], [ 0, %25 ], [ %.mux.le, %.loopexit.loopexit.split.loop.exit ], [ %65, %59 ], [ 0, %75 ], [ %56, %52 ], [ %48, %43 ]
  ret i32 %.058
}